; Function Attrs: nounwind allocsize(0) uwtable
define noalias noundef ptr @__zend_malloc(i64 noundef %0) #9 {
  %2 = tail call noalias ptr @malloc(i64 noundef %0) #39
  %3 = icmp ne ptr %2, null
  %.not = icmp eq i64 %0, 0
  %4 = or i1 %.not, %3
  br i1 %4, label %5, label %6

5:                                                ; preds = %1
  ret ptr %2

6:                                                ; preds = %1
  tail call fastcc void @zend_out_of_memory() #34
  unreachable
}